; Function Attrs: mustprogress uwtable
define hidden void @_ZN3sat7probingC2ERNS_6solverERK10params_ref(ptr noundef nonnull align 8 dereferenceable(168) initializes((0, 8), (16, 40), (72, 88)) %0, ptr noundef nonnull align 8 dereferenceable(4264) %1, ptr noundef nonnull align 8 dereferenceable(8) %2) unnamed_addr #3 align 2 personality ptr @__gxx_personality_v0 {
  store ptr %1, ptr %0, align 8, !tbaa !3
  %4 = getelementptr inbounds nuw i8, ptr %0, i64 16
  %5 = getelementptr inbounds nuw i8, ptr %0, i64 72
  %6 = getelementptr inbounds nuw i8, ptr %0, i64 88
  %7 = getelementptr inbounds nuw i8, ptr %1, i64 2356
  tail call void @llvm.memset.p0.i64(ptr noundef nonnull align 8 dereferenceable(24) %4, i8 0, i64 24, i1 false)
  tail call void @llvm.memset.p0.i64(ptr noundef nonnull align 8 dereferenceable(16) %5, i8 0, i64 16, i1 false)
  invoke void @_ZN3sat3bigC1ER10random_gen(ptr noundef nonnull align 8 dereferenceable(80) %6, ptr noundef nonnull align 4 dereferenceable(4) %7)
          to label %8 unwind label %13

8:                                                ; preds = %3
  invoke void @_ZN3sat7probing11updt_paramsERK10params_ref(ptr noundef nonnull align 8 dereferenceable(168) %0, ptr noundef nonnull align 8 dereferenceable(8) %2)
          to label %9 unwind label %15

9:                                                ; preds = %8
  %10 = getelementptr inbounds nuw i8, ptr %0, i64 64
  store i32 0, ptr %10, align 8, !tbaa !8
  %11 = getelementptr inbounds nuw i8, ptr %0, i64 8
  store i32 0, ptr %11, align 8, !tbaa !38
  %12 = getelementptr inbounds nuw i8, ptr %0, i64 40
  store i32 0, ptr %12, align 8, !tbaa !39
  ret void

13:                                               ; preds = %3
  %14 = landingpad { ptr, i32 }
          cleanup
  br label %17

15:                                               ; preds = %8
  %16 = landingpad { ptr, i32 }
          cleanup
  tail call void @_ZN3sat3bigD2Ev(ptr noundef nonnull align 8 dereferenceable(80) %6) #22
  br label %17

17:                                               ; preds = %15, %13
  %.pn = phi { ptr, i32 } [ %16, %15 ], [ %14, %13 ]
  %18 = getelementptr inbounds nuw i8, ptr %0, i64 80
  %19 = getelementptr inbounds nuw i8, ptr %0, i64 32
  tail call void @_ZN6vectorISt4pairIN3sat7literalES2_ELb0EjED2Ev(ptr noundef nonnull align 8 dereferenceable(8) %18) #22
  tail call void @_ZN6vectorIN3sat7probing11cache_entryELb1EjED2Ev(ptr noundef nonnull align 8 dereferenceable(8) %5) #22
  tail call void @_ZN6vectorIN3sat7literalELb0EjED2Ev(ptr noundef nonnull align 8 dereferenceable(8) %19) #22
  tail call void @_ZN3sat11literal_setD2Ev(ptr noundef nonnull align 8 dereferenceable(16) %4) #22
  resume { ptr, i32 } %.pn
}